; Function Attrs: mustprogress uwtable
define hidden void @_ZN9act_cache7cleanupEv(ptr nocapture noundef nonnull align 8 dereferenceable(92) %this) local_unnamed_addr #5 align 2 {
entry:
  tail call void @_ZN9act_cache8dec_refsEv(ptr noundef nonnull align 8 dereferenceable(92) %this)
  %m_table = getelementptr inbounds i8, ptr %this, i64 8
  %0 = load ptr, ptr %m_table, align 8
  %cmp.i.i.i.i = icmp eq ptr %0, null
  br i1 %cmp.i.i.i.i, label %_ZN10chashtableIN4cmapISt4pairIP4exprjES3_N9act_cache10entry_hashE10default_eqIS4_EE9key_valueENS9_19key_value_hash_procENS9_17key_value_eq_procEE12delete_tableEv.exit.i.i, label %for.cond.preheader.i.i.i.i

for.cond.preheader.i.i.i.i:                       ; preds = %entry
  tail call void @_ZN6memory10deallocateEPv(ptr noundef nonnull %0)
  br label %_ZN10chashtableIN4cmapISt4pairIP4exprjES3_N9act_cache10entry_hashE10default_eqIS4_EE9key_valueENS9_19key_value_hash_procENS9_17key_value_eq_procEE12delete_tableEv.exit.i.i

_ZN10chashtableIN4cmapISt4pairIP4exprjES3_N9act_cache10entry_hashE10default_eqIS4_EE9key_valueENS9_19key_value_hash_procENS9_17key_value_eq_procEE12delete_tableEv.exit.i.i: ; preds = %for.cond.preheader.i.i.i.i, %entry
  %m_init_slots.i.i = getelementptr inbounds i8, ptr %this, i64 20
  %1 = load i32, ptr %m_init_slots.i.i, align 4
  %m_init_cellar.i.i = getelementptr inbounds i8, ptr %this, i64 24
  %2 = load i32, ptr %m_init_cellar.i.i, align 8
  %add.i.i.i = add i32 %2, %1
  %m_capacity.i.i.i = getelementptr inbounds i8, ptr %this, i64 16
  store i32 %add.i.i.i, ptr %m_capacity.i.i.i, align 8
  %conv.i.i.i.i.i = zext i32 %add.i.i.i to i64
  %mul.i.i.i.i.i = shl nuw nsw i64 %conv.i.i.i.i.i, 5
  %call.i.i.i.i.i = tail call noalias noundef ptr @_ZN6memory8allocateEm(i64 noundef %mul.i.i.i.i.i)
  %cmp5.not.i.i.i.i.i = icmp eq i32 %add.i.i.i, 0
  br i1 %cmp5.not.i.i.i.i.i, label %_ZN4cmapISt4pairIP4exprjES2_N9act_cache10entry_hashE10default_eqIS3_EE8finalizeEv.exit, label %for.body.i.i.i.i.i

for.body.i.i.i.i.i:                               ; preds = %_ZN10chashtableIN4cmapISt4pairIP4exprjES3_N9act_cache10entry_hashE10default_eqIS4_EE9key_valueENS9_19key_value_hash_procENS9_17key_value_eq_procEE12delete_tableEv.exit.i.i, %for.body.i.i.i.i.i
  %i.07.i.i.i.i.i = phi i32 [ %inc.i.i.i.i.i, %for.body.i.i.i.i.i ], [ 0, %_ZN10chashtableIN4cmapISt4pairIP4exprjES3_N9act_cache10entry_hashE10default_eqIS4_EE9key_valueENS9_19key_value_hash_procENS9_17key_value_eq_procEE12delete_tableEv.exit.i.i ]
  %curr.06.i.i.i.i.i = phi ptr [ %incdec.ptr.i.i.i.i.i, %for.body.i.i.i.i.i ], [ %call.i.i.i.i.i, %_ZN10chashtableIN4cmapISt4pairIP4exprjES3_N9act_cache10entry_hashE10default_eqIS4_EE9key_valueENS9_19key_value_hash_procENS9_17key_value_eq_procEE12delete_tableEv.exit.i.i ]
  store ptr inttoptr (i64 1 to ptr), ptr %curr.06.i.i.i.i.i, align 8
  %m_data.i.i.i.i.i.i = getelementptr inbounds i8, ptr %curr.06.i.i.i.i.i, i64 8
  store ptr null, ptr %m_data.i.i.i.i.i.i, align 8
  %second.i.i.i.i.i.i.i.i = getelementptr inbounds i8, ptr %curr.06.i.i.i.i.i, i64 16
  store i32 0, ptr %second.i.i.i.i.i.i.i.i, align 8
  %inc.i.i.i.i.i = add nuw i32 %i.07.i.i.i.i.i, 1
  %incdec.ptr.i.i.i.i.i = getelementptr inbounds i8, ptr %curr.06.i.i.i.i.i, i64 32
  %exitcond.not.i.i.i.i.i = icmp eq i32 %inc.i.i.i.i.i, %add.i.i.i
  br i1 %exitcond.not.i.i.i.i.i, label %_ZN4cmapISt4pairIP4exprjES2_N9act_cache10entry_hashE10default_eqIS3_EE8finalizeEv.exit, label %for.body.i.i.i.i.i, !llvm.loop !12

_ZN4cmapISt4pairIP4exprjES2_N9act_cache10entry_hashE10default_eqIS3_EE8finalizeEv.exit: ; preds = %for.body.i.i.i.i.i, %_ZN10chashtableIN4cmapISt4pairIP4exprjES3_N9act_cache10entry_hashE10default_eqIS4_EE9key_valueENS9_19key_value_hash_procENS9_17key_value_eq_procEE12delete_tableEv.exit.i.i
  store ptr %call.i.i.i.i.i, ptr %m_table, align 8
  %m_slots.i.i.i = getelementptr inbounds i8, ptr %this, i64 28
  store i32 %1, ptr %m_slots.i.i.i, align 4
  %m_used_slots.i.i.i = getelementptr inbounds i8, ptr %this, i64 32
  store i32 0, ptr %m_used_slots.i.i.i, align 8
  %m_size.i.i.i = getelementptr inbounds i8, ptr %this, i64 36
  store i32 0, ptr %m_size.i.i.i, align 4
  %idx.ext.i.i.i = zext i32 %1 to i64
  %add.ptr.i.i.i = getelementptr inbounds %"struct.chashtable<cmap<std::pair<expr *, unsigned int>, expr *, act_cache::entry_hash, default_eq<std::pair<expr *, unsigned int>>>::key_value, cmap<std::pair<expr *, unsigned int>, expr *, act_cache::entry_hash, default_eq<std::pair<expr *, unsigned int>>>::key_value_hash_proc, cmap<std::pair<expr *, unsigned int>, expr *, act_cache::entry_hash, default_eq<std::pair<expr *, unsigned int>>>::key_value_eq_proc>::cell", ptr %call.i.i.i.i.i, i64 %idx.ext.i.i.i
  %m_next_cell.i.i.i = getelementptr inbounds i8, ptr %this, i64 48
  store ptr %add.ptr.i.i.i, ptr %m_next_cell.i.i.i, align 8
  %m_free_cell.i.i.i = getelementptr inbounds i8, ptr %this, i64 56
  tail call void @llvm.memset.p0.i64(ptr noundef nonnull align 8 dereferenceable(16) %m_free_cell.i.i.i, i8 0, i64 16, i1 false)
  %m_queue = getelementptr inbounds i8, ptr %this, i64 72
  %3 = load ptr, ptr %m_queue, align 8
  %tobool.not.i.i = icmp eq ptr %3, null
  br i1 %tobool.not.i.i, label %_ZN6vectorISt4pairIP4exprjELb0EjE8finalizeEv.exit, label %if.then.i.i

if.then.i.i:                                      ; preds = %_ZN4cmapISt4pairIP4exprjES2_N9act_cache10entry_hashE10default_eqIS3_EE8finalizeEv.exit
  %add.ptr.i.i.i1 = getelementptr inbounds i8, ptr %3, i64 -8
  tail call void @_ZN6memory10deallocateEPv(ptr noundef nonnull %add.ptr.i.i.i1)
  br label %_ZN6vectorISt4pairIP4exprjELb0EjE8finalizeEv.exit

_ZN6vectorISt4pairIP4exprjELb0EjE8finalizeEv.exit: ; preds = %_ZN4cmapISt4pairIP4exprjES2_N9act_cache10entry_hashE10default_eqIS3_EE8finalizeEv.exit, %if.then.i.i
  tail call void @llvm.memset.p0.i64(ptr noundef nonnull align 8 dereferenceable(16) %m_queue, i8 0, i64 16, i1 false)
  ret void
}